; Function Attrs: mustprogress uwtable
define hidden noundef zeroext i1 @_ZN18OpenImageIO_v2_6_08PSDInput18load_resource_1010Ej(ptr noundef nonnull align 8 dereferenceable(840) %this, i32 %0) #5 align 2 {
entry:
  %buffer.i1 = alloca i32, align 4
  %buffer.i = alloca i8, align 1
  call void @llvm.lifetime.start.p0(i64 1, ptr nonnull %buffer.i)
  %call.i = call noundef zeroext i1 @_ZN18OpenImageIO_v2_6_010ImageInput6ioreadEPvmm(ptr noundef nonnull align 8 dereferenceable(184) %this, ptr noundef nonnull %buffer.i, i64 noundef 1, i64 noundef 1)
  call void @llvm.lifetime.end.p0(i64 1, ptr nonnull %buffer.i)
  br i1 %call.i, label %land.rhs, label %land.end

land.rhs:                                         ; preds = %entry
  call void @llvm.lifetime.start.p0(i64 4, ptr nonnull %buffer.i1)
  %call.i2 = call noundef zeroext i1 @_ZN18OpenImageIO_v2_6_010ImageInput6ioreadEPvmm(ptr noundef nonnull align 8 dereferenceable(184) %this, ptr noundef nonnull %buffer.i1, i64 noundef 4, i64 noundef 1)
  %buffer.promoted.i = load i32, ptr %buffer.i1, align 4
  %1 = call i32 @llvm.bswap.i32(i32 %buffer.promoted.i)
  %color.0 = select i1 %call.i2, i32 %1, i32 0
  call void @llvm.lifetime.end.p0(i64 4, ptr nonnull %buffer.i1)
  br label %land.end

land.end:                                         ; preds = %land.rhs, %entry
  %color.1 = phi i32 [ %color.0, %land.rhs ], [ 0, %entry ]
  %2 = phi i1 [ %call.i2, %land.rhs ], [ false, %entry ]
  %m_background_color = getelementptr inbounds i8, ptr %this, i64 636
  %shr = lshr i32 %color.1, 8
  %shr11 = lshr i32 %color.1, 16
  %shr18 = lshr i32 %color.1, 24
  %3 = insertelement <4 x i32> poison, i32 %color.1, i64 0
  %4 = insertelement <4 x i32> %3, i32 %shr, i64 1
  %5 = insertelement <4 x i32> %4, i32 %shr11, i64 2
  %6 = insertelement <4 x i32> %5, i32 %shr18, i64 3
  %7 = trunc <4 x i32> %6 to <4 x i8>
  %8 = uitofp <4 x i8> %7 to <4 x float>
  %9 = fmul <4 x float> %8, <float 0x3F70101020000000, float 0x3F70101020000000, float 0x3F70101020000000, float 0x3F70101020000000>
  store <4 x float> %9, ptr %m_background_color, align 4
  ret i1 %2
}